Archive member included because of file (symbol)

/home/linus/HomeAutomation/trunk/EmbeddedSoftware/AVR/personal/template_module/bios/libbios.a(libbios.o)
                              drivers/can/stdcan.o (BIOS_CanSend)
/usr/lib/gcc/avr/4.1.0/avr5/libgcc.a(_divmodhi4.o)
                              drivers/sensor/ds18s20/ds18x20.o (__divmodhi4)
/usr/lib/gcc/avr/4.1.0/avr5/libgcc.a(_copy_data.o)
                              main.o (__do_copy_data)
/usr/lib/gcc/avr/4.1.0/avr5/libgcc.a(_clear_bss.o)
                              main.o (__do_clear_bss)
/usr/lib/gcc/avr/4.1.0/avr5/libgcc.a(_udivmodhi4.o)
                              /usr/lib/gcc/avr/4.1.0/avr5/libgcc.a(_divmodhi4.o) (__udivmodhi4)

Allocating common symbols
Common symbol       size              file

FlagReadTemperature
                    0x1               ../modules/sns_ds18x20/sns_ds18x20.o
timers              0x15              drivers/timer/timer.o
NumberOfSensors     0x1               ../modules/sns_ds18x20/sns_ds18x20.o
FlagSearchSensors   0x1               ../modules/sns_ds18x20/sns_ds18x20.o
RxQ_Rd_idx          0x1               drivers/can/stdcan.o
FlagConvertTemperature
                    0x1               ../modules/sns_ds18x20/sns_ds18x20.o
RxQ_Len             0x1               drivers/can/stdcan.o
ticks               0x4               drivers/timer/timer.o
RxQ                 0x68              drivers/can/stdcan.o
gSensorIDs          0x20              main.o
RxQ_Wr_idx          0x1               drivers/can/stdcan.o

Memory Configuration

Name             Origin             Length             Attributes
text             0x00000000         0x00020000         xr
data             0x00800060         0x0000ffa0         rw !x
eeprom           0x00810000         0x00010000         rw !x
*default*        0x00000000         0xffffffff

Linker script and memory map

Address of section .data set to 0x80011b
LOAD /usr/lib/gcc/avr/4.1.0/../../../../avr/lib/avr5/crtm168.o
LOAD main.o
LOAD drivers/timer/timer.o
LOAD drivers/mcu/mcu.o
LOAD drivers/sensor/ds18s20/ds18x20.o
LOAD drivers/sensor/ds18s20/onewire.o
LOAD drivers/sensor/ds18s20/delay.o
LOAD drivers/sensor/ds18s20/crc8.o
LOAD drivers/can/stdcan.o
LOAD ../modules/sns_ds18x20/sns_ds18x20.o
LOAD /home/linus/HomeAutomation/trunk/EmbeddedSoftware/AVR/personal/template_module/bios/libbios.a
LOAD /usr/lib/gcc/avr/4.1.0/../../../../avr/lib/avr5/libm.a
LOAD /usr/lib/gcc/avr/4.1.0/avr5/libgcc.a
LOAD /usr/lib/gcc/avr/4.1.0/../../../../avr/lib/avr5/libc.a
LOAD /usr/lib/gcc/avr/4.1.0/avr5/libgcc.a

.hash
 *(.hash)

.dynsym
 *(.dynsym)

.dynstr
 *(.dynstr)

.gnu.version
 *(.gnu.version)

.gnu.version_d
 *(.gnu.version_d)

.gnu.version_r
 *(.gnu.version_r)

.rel.init
 *(.rel.init)

.rela.init
 *(.rela.init)

.rel.text
 *(.rel.text)
 *(.rel.text.*)
 *(.rel.gnu.linkonce.t*)

.rela.text
 *(.rela.text)
 *(.rela.text.*)
 *(.rela.gnu.linkonce.t*)

.rel.fini
 *(.rel.fini)

.rela.fini
 *(.rela.fini)

.rel.rodata
 *(.rel.rodata)
 *(.rel.rodata.*)
 *(.rel.gnu.linkonce.r*)

.rela.rodata
 *(.rela.rodata)
 *(.rela.rodata.*)
 *(.rela.gnu.linkonce.r*)

.rel.data
 *(.rel.data)
 *(.rel.data.*)
 *(.rel.gnu.linkonce.d*)

.rela.data
 *(.rela.data)
 *(.rela.data.*)
 *(.rela.gnu.linkonce.d*)

.rel.ctors
 *(.rel.ctors)

.rela.ctors
 *(.rela.ctors)

.rel.dtors
 *(.rel.dtors)

.rela.dtors
 *(.rela.dtors)

.rel.got
 *(.rel.got)

.rela.got
 *(.rela.got)

.rel.bss
 *(.rel.bss)

.rela.bss
 *(.rela.bss)

.rel.plt
 *(.rel.plt)

.rela.plt
 *(.rela.plt)

.text           0x00000000      0xd82
 *(.vectors)
 .vectors       0x00000000       0x68 /usr/lib/gcc/avr/4.1.0/../../../../avr/lib/avr5/crtm168.o
                0x00000000                __vectors
                0x00000000                __vector_default
                0x00000068                __ctors_start = .
 *(.ctors)
                0x00000068                __ctors_end = .
                0x00000068                __dtors_start = .
 *(.dtors)
                0x00000068                __dtors_end = .
 *(.progmem.gcc*)
 *(.progmem*)
                0x00000068                . = ALIGN (0x2)
 *(.init0)
 *(.init1)
 *(.init2)
 .init2         0x00000068        0xc /usr/lib/gcc/avr/4.1.0/../../../../avr/lib/avr5/crtm168.o
 *(.init3)
 *(.init4)
 .init4         0x00000074       0x16 /usr/lib/gcc/avr/4.1.0/avr5/libgcc.a(_copy_data.o)
                0x00000074                __do_copy_data
 .init4         0x0000008a       0x10 /usr/lib/gcc/avr/4.1.0/avr5/libgcc.a(_clear_bss.o)
                0x0000008a                __do_clear_bss
 *(.init5)
 *(.init6)
 *(.init7)
 *(.init8)
 *(.init9)
 .init9         0x0000009a        0x4 /usr/lib/gcc/avr/4.1.0/../../../../avr/lib/avr5/crtm168.o
 *(.text)
 .text          0x0000009e        0x4 /usr/lib/gcc/avr/4.1.0/../../../../avr/lib/avr5/crtm168.o
                0x0000009e                __vector_22
                0x0000009e                __vector_1
                0x0000009e                __vector_24
                0x0000009e                __vector_12
                0x0000009e                __bad_interrupt
                0x0000009e                __vector_6
                0x0000009e                __vector_3
                0x0000009e                __vector_23
                0x0000009e                __vector_25
                0x0000009e                __vector_11
                0x0000009e                __vector_13
                0x0000009e                __vector_17
                0x0000009e                __vector_19
                0x0000009e                __vector_5
                0x0000009e                __vector_4
                0x0000009e                __vector_9
                0x0000009e                __vector_2
                0x0000009e                __vector_21
                0x0000009e                __vector_15
                0x0000009e                __vector_8
                0x0000009e                __vector_14
                0x0000009e                __vector_10
                0x0000009e                __vector_16
                0x0000009e                __vector_18
                0x0000009e                __vector_20
 .text          0x000000a2       0x5a main.o
                0x000000a2                main
 .text          0x000000fc      0x16c drivers/timer/timer.o
                0x000001d4                Timer_GetTicks
                0x000000fc                __vector_7
                0x000001b4                Timer_Init
                0x0000023a                Timer_Expired
                0x000001ec                Timer_SetTimeout
 .text          0x00000268       0x14 drivers/mcu/mcu.o
                0x00000268                Mcu_Init
                0x00000278                Mcu_DisableIRQ
                0x00000274                Mcu_EnableIRQ
 .text          0x0000027c      0x406 drivers/sensor/ds18s20/ds18x20.o
                0x00000490                DS18X20_read_meas
                0x000003e4                DS18X20_read_meas_single
                0x00000320                DS18X20_temp_to_decicel
                0x00000544                DS18X20_start_meas
                0x0000057c                DS18X20_get_power_status
                0x000003b4                DS18X20_temp_cmp
                0x0000027c                DS18X20_meas_to_cel
                0x000005ac                DS18X20_find_sensor
                0x000005e0                search_sensors
 .text          0x00000682      0x1ac drivers/sensor/ds18s20/onewire.o
                0x00000752                ow_command
                0x0000070a                ow_reset
                0x00000682                ow_input_pin_state
                0x00000700                ow_byte_rd
                0x00000790                ow_rom_search
                0x00000692                ow_parasite_disable
                0x0000068c                ow_parasite_enable
                0x000006dc                ow_byte_wr
                0x00000698                ow_bit_io
 .text          0x0000082e       0x1a drivers/sensor/ds18s20/delay.o
                0x0000082e                delayloop32
 .text          0x00000848       0x3c drivers/sensor/ds18s20/crc8.o
                0x00000848                crc8
 .text          0x00000884      0x2a6 drivers/can/stdcan.o
                0x000009be                StdCan_SendHeartbeat
                0x00000ab6                StdCan_Init
                0x00000884                Can_Process
                0x00000a16                StdCan_Put
                0x000009b6                StdCan_Get_Pending
                0x00000906                StdCan_Get
 .text          0x00000b2a      0x20a ../modules/sns_ds18x20/sns_ds18x20.o
                0x00000b3a                sns_ds18x20_HandleMessage
                0x00000bca                ReadTemperature
                0x00000baa                ConvertTemperature
                0x00000cb0                sns_ds18x20_Process
                0x00000b32                ConvertTemperature_callback
                0x00000b2a                ReadTemperature_callback
                0x00000b3c                sns_ds18x20_List
                0x00000b90                sns_ds18x20_Init
                0x00000d34                . = ALIGN (0x2)
 *(.text.*)
 .text.libgcc   0x00000d34       0x26 /usr/lib/gcc/avr/4.1.0/avr5/libgcc.a(_divmodhi4.o)
                0x00000d34                __divmodhi4
                0x00000d34                _div
 .text.libgcc   0x00000d5a       0x28 /usr/lib/gcc/avr/4.1.0/avr5/libgcc.a(_udivmodhi4.o)
                0x00000d5a                __udivmodhi4
                0x00000d82                . = ALIGN (0x2)
 *(.fini9)
 *(.fini8)
 *(.fini7)
 *(.fini6)
 *(.fini5)
 *(.fini4)
 *(.fini3)
 *(.fini2)
 *(.fini1)
 *(.fini0)
                0x00000d82                _etext = .

.data           0x0080011b        0x9 load address 0x00000d82
                0x0080011b                PROVIDE (__data_start, .)
 *(.data)
 .data          0x0080011b        0x8 drivers/sensor/ds18s20/ds18x20.o
 .data          0x00800123        0x1 ../modules/sns_ds18x20/sns_ds18x20.o
 *(.gnu.linkonce.d*)
                0x00800124                . = ALIGN (0x2)
                0x00800124                _edata = .
                0x00800124                PROVIDE (__data_end, .)

.bss            0x00800124       0xb1
                0x00800124                PROVIDE (__bss_start, .)
 *(.bss)
 .bss           0x00800124        0x9 ../modules/sns_ds18x20/sns_ds18x20.o
                0x00800124                SensorIds
 *(COMMON)
 COMMON         0x0080012d       0x20 main.o
                0x0080012d                gSensorIDs
 COMMON         0x0080014d       0x19 drivers/timer/timer.o
                0x0080014d                timers
                0x00800162                ticks
 COMMON         0x00800166       0x6b drivers/can/stdcan.o
                0x00800166                RxQ_Rd_idx
                0x00800167                RxQ_Len
                0x00800168                RxQ
                0x008001d0                RxQ_Wr_idx
 COMMON         0x008001d1        0x4 ../modules/sns_ds18x20/sns_ds18x20.o
                0x008001d1                FlagReadTemperature
                0x008001d2                NumberOfSensors
                0x008001d3                FlagSearchSensors
                0x008001d4                FlagConvertTemperature
                0x008001d5                PROVIDE (__bss_end, .)
                0x00000d82                __data_load_start = LOADADDR (.data)
                0x00000d8b                __data_load_end = (__data_load_start + SIZEOF (.data))

.noinit         0x008001d5        0x0
                0x008001d5                PROVIDE (__noinit_start, .)
 *(.noinit*)
                0x008001d5                PROVIDE (__noinit_end, .)
                0x008001d5                _end = .
                0x008001d5                PROVIDE (__heap_start, .)

.eeprom         0x00810000        0x0
 *(.eeprom*)
                0x00810000                __eeprom_end = .

.stab           0x00000000     0x2b20
 *(.stab)
 .stab          0x00000000      0x36c /usr/lib/gcc/avr/4.1.0/../../../../avr/lib/avr5/crtm168.o
 .stab          0x0000036c      0x4ec main.o
                                0x4f8 (size before relaxing)
 .stab          0x00000858      0x36c drivers/timer/timer.o
                                0x510 (size before relaxing)
 .stab          0x00000bc4      0x1b0 drivers/mcu/mcu.o
                                0x33c (size before relaxing)
 .stab          0x00000d74      0x780 drivers/sensor/ds18s20/ds18x20.o
                                0x960 (size before relaxing)
 .stab          0x000014f4      0x774 drivers/sensor/ds18s20/onewire.o
                                0x918 (size before relaxing)
 .stab          0x00001c68      0x138 drivers/sensor/ds18s20/delay.o
                                0x2dc (size before relaxing)
 .stab          0x00001da0      0x1e0 drivers/sensor/ds18s20/crc8.o
                                0x36c (size before relaxing)
 .stab          0x00001f80      0x510 drivers/can/stdcan.o
                                0x6fc (size before relaxing)
 .stab          0x00002490      0x684 ../modules/sns_ds18x20/sns_ds18x20.o
                                0x8e8 (size before relaxing)
 .stab          0x00002b14        0xc /home/linus/HomeAutomation/trunk/EmbeddedSoftware/AVR/personal/template_module/bios/libbios.a(libbios.o)
                                 0x18 (size before relaxing)

.stabstr        0x00000000     0x1f11
 *(.stabstr)
 .stabstr       0x00000000     0x1f11 /usr/lib/gcc/avr/4.1.0/../../../../avr/lib/avr5/crtm168.o

.stab.excl
 *(.stab.excl)

.stab.exclstr
 *(.stab.exclstr)

.stab.index
 *(.stab.index)

.stab.indexstr
 *(.stab.indexstr)

.comment
 *(.comment)

.debug
 *(.debug)

.line
 *(.line)

.debug_srcinfo
 *(.debug_srcinfo)

.debug_sfnames
 *(.debug_sfnames)

.debug_aranges
 *(.debug_aranges)

.debug_pubnames
 *(.debug_pubnames)

.debug_info
 *(.debug_info)
 *(.gnu.linkonce.wi.*)

.debug_abbrev
 *(.debug_abbrev)

.debug_line
 *(.debug_line)

.debug_frame
 *(.debug_frame)

.debug_str
 *(.debug_str)

.debug_loc
 *(.debug_loc)

.debug_macinfo
 *(.debug_macinfo)
OUTPUT(main.elf elf32-avr)

Cross Reference Table

Symbol                                            File
BIOS_CanCallback                                  /home/linus/HomeAutomation/trunk/EmbeddedSoftware/AVR/personal/template_module/bios/libbios.a(libbios.o)
                                                  ../modules/sns_ds18x20/sns_ds18x20.o
                                                  drivers/can/stdcan.o
                                                  main.o
BIOS_CanSend                                      /home/linus/HomeAutomation/trunk/EmbeddedSoftware/AVR/personal/template_module/bios/libbios.a(libbios.o)
                                                  drivers/can/stdcan.o
BIOS_Reset                                        /home/linus/HomeAutomation/trunk/EmbeddedSoftware/AVR/personal/template_module/bios/libbios.a(libbios.o)
Can_Process                                       drivers/can/stdcan.o
ConvertTemperature                                ../modules/sns_ds18x20/sns_ds18x20.o
ConvertTemperature_callback                       ../modules/sns_ds18x20/sns_ds18x20.o
DS18X20_find_sensor                               drivers/sensor/ds18s20/ds18x20.o
DS18X20_get_power_status                          drivers/sensor/ds18s20/ds18x20.o
DS18X20_meas_to_cel                               drivers/sensor/ds18s20/ds18x20.o
DS18X20_read_meas                                 drivers/sensor/ds18s20/ds18x20.o
                                                  ../modules/sns_ds18x20/sns_ds18x20.o
DS18X20_read_meas_single                          drivers/sensor/ds18s20/ds18x20.o
DS18X20_start_meas                                drivers/sensor/ds18s20/ds18x20.o
                                                  ../modules/sns_ds18x20/sns_ds18x20.o
DS18X20_temp_cmp                                  drivers/sensor/ds18s20/ds18x20.o
DS18X20_temp_to_decicel                           drivers/sensor/ds18s20/ds18x20.o
FlagConvertTemperature                            ../modules/sns_ds18x20/sns_ds18x20.o
FlagReadTemperature                               ../modules/sns_ds18x20/sns_ds18x20.o
FlagSearchSensors                                 ../modules/sns_ds18x20/sns_ds18x20.o
Mcu_DisableIRQ                                    drivers/mcu/mcu.o
Mcu_EnableIRQ                                     drivers/mcu/mcu.o
Mcu_Init                                          drivers/mcu/mcu.o
NumberOfSensors                                   ../modules/sns_ds18x20/sns_ds18x20.o
ReadTemperature                                   ../modules/sns_ds18x20/sns_ds18x20.o
ReadTemperature_callback                          ../modules/sns_ds18x20/sns_ds18x20.o
RxQ                                               drivers/can/stdcan.o
RxQ_Len                                           drivers/can/stdcan.o
RxQ_Rd_idx                                        drivers/can/stdcan.o
RxQ_Wr_idx                                        drivers/can/stdcan.o
SensorIds                                         ../modules/sns_ds18x20/sns_ds18x20.o
StdCan_Get                                        drivers/can/stdcan.o
                                                  main.o
StdCan_Get_Pending                                drivers/can/stdcan.o
StdCan_Init                                       drivers/can/stdcan.o
                                                  main.o
StdCan_Put                                        drivers/can/stdcan.o
                                                  ../modules/sns_ds18x20/sns_ds18x20.o
StdCan_SendHeartbeat                              drivers/can/stdcan.o
                                                  main.o
Timer_Expired                                     drivers/timer/timer.o
Timer_GetTicks                                    drivers/timer/timer.o
Timer_Init                                        drivers/timer/timer.o
                                                  main.o
Timer_SetTimeout                                  drivers/timer/timer.o
                                                  ../modules/sns_ds18x20/sns_ds18x20.o
                                                  main.o
__bad_interrupt                                   /usr/lib/gcc/avr/4.1.0/../../../../avr/lib/avr5/crtm168.o
__bss_end                                         /usr/lib/gcc/avr/4.1.0/avr5/libgcc.a(_clear_bss.o)
__bss_start                                       /usr/lib/gcc/avr/4.1.0/avr5/libgcc.a(_clear_bss.o)
__data_end                                        /usr/lib/gcc/avr/4.1.0/avr5/libgcc.a(_copy_data.o)
__data_load_start                                 /usr/lib/gcc/avr/4.1.0/avr5/libgcc.a(_copy_data.o)
__data_start                                      /usr/lib/gcc/avr/4.1.0/avr5/libgcc.a(_copy_data.o)
__divmodhi4                                       /usr/lib/gcc/avr/4.1.0/avr5/libgcc.a(_divmodhi4.o)
                                                  drivers/sensor/ds18s20/ds18x20.o
__do_clear_bss                                    /usr/lib/gcc/avr/4.1.0/avr5/libgcc.a(_clear_bss.o)
                                                  ../modules/sns_ds18x20/sns_ds18x20.o
                                                  drivers/can/stdcan.o
                                                  drivers/sensor/ds18s20/crc8.o
                                                  drivers/sensor/ds18s20/delay.o
                                                  drivers/sensor/ds18s20/onewire.o
                                                  drivers/sensor/ds18s20/ds18x20.o
                                                  drivers/mcu/mcu.o
                                                  drivers/timer/timer.o
                                                  main.o
__do_copy_data                                    /usr/lib/gcc/avr/4.1.0/avr5/libgcc.a(_copy_data.o)
                                                  ../modules/sns_ds18x20/sns_ds18x20.o
                                                  drivers/can/stdcan.o
                                                  drivers/sensor/ds18s20/crc8.o
                                                  drivers/sensor/ds18s20/delay.o
                                                  drivers/sensor/ds18s20/onewire.o
                                                  drivers/sensor/ds18s20/ds18x20.o
                                                  drivers/mcu/mcu.o
                                                  drivers/timer/timer.o
                                                  main.o
__heap_end                                        /usr/lib/gcc/avr/4.1.0/../../../../avr/lib/avr5/crtm168.o
__init                                            /usr/lib/gcc/avr/4.1.0/../../../../avr/lib/avr5/crtm168.o
__stack                                           /usr/lib/gcc/avr/4.1.0/../../../../avr/lib/avr5/crtm168.o
                                                  main.o
__udivmodhi4                                      /usr/lib/gcc/avr/4.1.0/avr5/libgcc.a(_udivmodhi4.o)
                                                  /usr/lib/gcc/avr/4.1.0/avr5/libgcc.a(_divmodhi4.o)
__vector_1                                        /usr/lib/gcc/avr/4.1.0/../../../../avr/lib/avr5/crtm168.o
__vector_10                                       /usr/lib/gcc/avr/4.1.0/../../../../avr/lib/avr5/crtm168.o
__vector_11                                       /usr/lib/gcc/avr/4.1.0/../../../../avr/lib/avr5/crtm168.o
__vector_12                                       /usr/lib/gcc/avr/4.1.0/../../../../avr/lib/avr5/crtm168.o
__vector_13                                       /usr/lib/gcc/avr/4.1.0/../../../../avr/lib/avr5/crtm168.o
__vector_14                                       /usr/lib/gcc/avr/4.1.0/../../../../avr/lib/avr5/crtm168.o
__vector_15                                       /usr/lib/gcc/avr/4.1.0/../../../../avr/lib/avr5/crtm168.o
__vector_16                                       /usr/lib/gcc/avr/4.1.0/../../../../avr/lib/avr5/crtm168.o
__vector_17                                       /usr/lib/gcc/avr/4.1.0/../../../../avr/lib/avr5/crtm168.o
__vector_18                                       /usr/lib/gcc/avr/4.1.0/../../../../avr/lib/avr5/crtm168.o
__vector_19                                       /usr/lib/gcc/avr/4.1.0/../../../../avr/lib/avr5/crtm168.o
__vector_2                                        /usr/lib/gcc/avr/4.1.0/../../../../avr/lib/avr5/crtm168.o
__vector_20                                       /usr/lib/gcc/avr/4.1.0/../../../../avr/lib/avr5/crtm168.o
__vector_21                                       /usr/lib/gcc/avr/4.1.0/../../../../avr/lib/avr5/crtm168.o
__vector_22                                       /usr/lib/gcc/avr/4.1.0/../../../../avr/lib/avr5/crtm168.o
__vector_23                                       /usr/lib/gcc/avr/4.1.0/../../../../avr/lib/avr5/crtm168.o
__vector_24                                       /usr/lib/gcc/avr/4.1.0/../../../../avr/lib/avr5/crtm168.o
__vector_25                                       /usr/lib/gcc/avr/4.1.0/../../../../avr/lib/avr5/crtm168.o
__vector_3                                        /usr/lib/gcc/avr/4.1.0/../../../../avr/lib/avr5/crtm168.o
__vector_4                                        /usr/lib/gcc/avr/4.1.0/../../../../avr/lib/avr5/crtm168.o
__vector_5                                        /usr/lib/gcc/avr/4.1.0/../../../../avr/lib/avr5/crtm168.o
__vector_6                                        /usr/lib/gcc/avr/4.1.0/../../../../avr/lib/avr5/crtm168.o
__vector_7                                        drivers/timer/timer.o
                                                  /usr/lib/gcc/avr/4.1.0/../../../../avr/lib/avr5/crtm168.o
__vector_8                                        /usr/lib/gcc/avr/4.1.0/../../../../avr/lib/avr5/crtm168.o
__vector_9                                        /usr/lib/gcc/avr/4.1.0/../../../../avr/lib/avr5/crtm168.o
__vector_default                                  /usr/lib/gcc/avr/4.1.0/../../../../avr/lib/avr5/crtm168.o
__vectors                                         /usr/lib/gcc/avr/4.1.0/../../../../avr/lib/avr5/crtm168.o
_div                                              /usr/lib/gcc/avr/4.1.0/avr5/libgcc.a(_divmodhi4.o)
crc8                                              drivers/sensor/ds18s20/crc8.o
                                                  drivers/sensor/ds18s20/ds18x20.o
delayloop32                                       drivers/sensor/ds18s20/delay.o
gSensorIDs                                        ../modules/sns_ds18x20/sns_ds18x20.o
                                                  drivers/sensor/ds18s20/ds18x20.o
                                                  main.o
main                                              main.o
                                                  /usr/lib/gcc/avr/4.1.0/../../../../avr/lib/avr5/crtm168.o
ow_bit_io                                         drivers/sensor/ds18s20/onewire.o
                                                  drivers/sensor/ds18s20/ds18x20.o
ow_byte_rd                                        drivers/sensor/ds18s20/onewire.o
                                                  drivers/sensor/ds18s20/ds18x20.o
ow_byte_wr                                        drivers/sensor/ds18s20/onewire.o
ow_command                                        drivers/sensor/ds18s20/onewire.o
                                                  drivers/sensor/ds18s20/ds18x20.o
ow_input_pin_state                                drivers/sensor/ds18s20/onewire.o
                                                  drivers/sensor/ds18s20/ds18x20.o
ow_parasite_disable                               drivers/sensor/ds18s20/onewire.o
ow_parasite_enable                                drivers/sensor/ds18s20/onewire.o
                                                  drivers/sensor/ds18s20/ds18x20.o
ow_reset                                          drivers/sensor/ds18s20/onewire.o
                                                  drivers/sensor/ds18s20/ds18x20.o
ow_rom_search                                     drivers/sensor/ds18s20/onewire.o
                                                  drivers/sensor/ds18s20/ds18x20.o
search_sensors                                    drivers/sensor/ds18s20/ds18x20.o
                                                  ../modules/sns_ds18x20/sns_ds18x20.o
sns_ds18x20_HandleMessage                         ../modules/sns_ds18x20/sns_ds18x20.o
                                                  main.o
sns_ds18x20_Init                                  ../modules/sns_ds18x20/sns_ds18x20.o
                                                  main.o
sns_ds18x20_List                                  ../modules/sns_ds18x20/sns_ds18x20.o
                                                  main.o
sns_ds18x20_Process                               ../modules/sns_ds18x20/sns_ds18x20.o
                                                  main.o
ticks                                             drivers/timer/timer.o
timers                                            drivers/timer/timer.o
